target datalayout = "e-m:e-p270:32:32-p271:32:32-p272:64:64-i64:64-i128:128-f80:128-n8:16:32:64-S128"
target triple = "x86_64-pc-linux-gnu"

; Function Attrs: nounwind uwtable
define internal i32 @zueci_u_ascii_inv(i32 noundef %0, ptr noundef %1) #0 {
  %3 = alloca i32, align 4
  %4 = alloca i32, align 4
  %5 = alloca ptr, align 8
  store i32 %0, ptr %4, align 4
  store ptr %1, ptr %5, align 8
  %6 = load i32, ptr %4, align 4
  %7 = icmp eq i32 %6, 127
  br i1 %7, label %29, label %8

8:                                                ; preds = %2
  %9 = load i32, ptr %4, align 4
  %10 = icmp ule i32 %9, 122
  br i1 %10, label %11, label %33

11:                                               ; preds = %8
  %12 = load i32, ptr %4, align 4
  %13 = icmp ne i32 %12, 35
  br i1 %13, label %14, label %33

14:                                               ; preds = %11
  %15 = load i32, ptr %4, align 4
  %16 = icmp ne i32 %15, 36
  br i1 %16, label %17, label %33

17:                                               ; preds = %14
  %18 = load i32, ptr %4, align 4
  %19 = icmp ne i32 %18, 64
  br i1 %19, label %20, label %33

20:                                               ; preds = %17
  %21 = load i32, ptr %4, align 4
  %22 = icmp ule i32 %21, 90
  br i1 %22, label %29, label %23

23:                                               ; preds = %20
  %24 = load i32, ptr %4, align 4
  %25 = icmp eq i32 %24, 95
  br i1 %25, label %29, label %26

26:                                               ; preds = %23
  %27 = load i32, ptr %4, align 4
  %28 = icmp uge i32 %27, 97
  br i1 %28, label %29, label %33

29:                                               ; preds = %26, %23, %20, %2
  %30 = load i32, ptr %4, align 4
  %31 = trunc i32 %30 to i8
  %32 = load ptr, ptr %5, align 8
  store i8 %31, ptr %32, align 1
  store i32 1, ptr %3, align 4
  br label %34

33:                                               ; preds = %26, %17, %14, %11, %8
  store i32 0, ptr %3, align 4
  br label %34

34:                                               ; preds = %33, %29
  %35 = load i32, ptr %3, align 4
  ret i32 %35
}