; Function Attrs: mustprogress nofree norecurse nosync nounwind willreturn memory(argmem: write) uwtable
define internal noundef i32 @zueci_u_ascii_inv(i32 noundef %0, ptr nocapture noundef writeonly %1) unnamed_addr #2 {
  %3 = icmp eq i32 %0, 127
  br i1 %3, label %10, label %4

4:                                                ; preds = %2
  %5 = icmp ult i32 %0, 123
  br i1 %5, label %switch.early.test, label %12

switch.early.test:                                ; preds = %4
  switch i32 %0, label %6 [
    i32 64, label %12
    i32 36, label %12
    i32 35, label %12
  ]

6:                                                ; preds = %switch.early.test
  %7 = icmp eq i32 %0, 95
  %8 = add nsw i32 %0, -97
  %9 = icmp ult i32 %8, -6
  %or.cond9 = or i1 %7, %9
  br i1 %or.cond9, label %10, label %12

10:                                               ; preds = %6, %2
  %11 = trunc i32 %0 to i8
  store i8 %11, ptr %1, align 1
  br label %12

12:                                               ; preds = %6, %4, %switch.early.test, %switch.early.test, %switch.early.test, %10
  %.0 = phi i32 [ 1, %10 ], [ 0, %switch.early.test ], [ 0, %switch.early.test ], [ 0, %switch.early.test ], [ 0, %4 ], [ 0, %6 ]
  ret i32 %.0
}